target datalayout = "e-m:e-p270:32:32-p271:32:32-p272:64:64-i64:64-i128:128-f80:128-n8:16:32:64-S128"
target triple = "x86_64-pc-linux-gnu"

%struct.AVEncryptionInfo = type { i32, i32, i32, ptr, i32, ptr, i32, ptr, i32 }

; Function Attrs: nounwind uwtable
define void @av_encryption_info_free(ptr noundef %0) #0 {
  %2 = alloca ptr, align 8
  store ptr %0, ptr %2, align 8, !tbaa !8
  %3 = load ptr, ptr %2, align 8, !tbaa !8
  %4 = icmp ne ptr %3, null
  br i1 %4, label %5, label %16

5:                                                ; preds = %1
  %6 = load ptr, ptr %2, align 8, !tbaa !8
  %7 = getelementptr inbounds nuw %struct.AVEncryptionInfo, ptr %6, i32 0, i32 3
  %8 = load ptr, ptr %7, align 8, !tbaa !11
  call void @av_free(ptr noundef %8)
  %9 = load ptr, ptr %2, align 8, !tbaa !8
  %10 = getelementptr inbounds nuw %struct.AVEncryptionInfo, ptr %9, i32 0, i32 5
  %11 = load ptr, ptr %10, align 8, !tbaa !16
  call void @av_free(ptr noundef %11)
  %12 = load ptr, ptr %2, align 8, !tbaa !8
  %13 = getelementptr inbounds nuw %struct.AVEncryptionInfo, ptr %12, i32 0, i32 7
  %14 = load ptr, ptr %13, align 8, !tbaa !18
  call void @av_free(ptr noundef %14)
  %15 = load ptr, ptr %2, align 8, !tbaa !8
  call void @av_free(ptr noundef %15)
  br label %16

16:                                               ; preds = %5, %1
  ret void
}