; Function Attrs: nounwind uwtable
define void @av_encryption_info_free(ptr noundef %0) local_unnamed_addr #0 {
  %.not = icmp eq ptr %0, null
  br i1 %.not, label %9, label %2

2:                                                ; preds = %1
  %3 = getelementptr inbounds nuw i8, ptr %0, i64 16
  %4 = load ptr, ptr %3, align 8, !tbaa !4
  tail call void @av_free(ptr noundef %4) #4
  %5 = getelementptr inbounds nuw i8, ptr %0, i64 32
  %6 = load ptr, ptr %5, align 8, !tbaa !13
  tail call void @av_free(ptr noundef %6) #4
  %7 = getelementptr inbounds nuw i8, ptr %0, i64 48
  %8 = load ptr, ptr %7, align 8, !tbaa !15
  tail call void @av_free(ptr noundef %8) #4
  tail call void @av_free(ptr noundef nonnull %0) #4
  br label %9

9:                                                ; preds = %2, %1
  ret void
}